MPASM 5.77                        DIBUJO.ASM   10-27-2020  21:34:08         PAGE  1


LOC  OBJECT CODE     LINE SOURCE TEXT
  VALUE

                      00001 
                      00002 ;*******************************************************************************
                      00003 ;                                                                              *
                      00004 ;    Filename:              Code -> code.asm                                   *
                      00005 ;    Date:                  06/10/2020                                         *
                      00006 ;    File Version:          v.1                                                *
                      00007 ;    Author:                Ricardo Pellecer Orellana                          *
                      00008 ;    Company:               UVG                                                *
                      00009 ;    Description:           Proyecto Sketch                                    *
                      00010 ;                                                                              *
                      00011 ;*******************************************************************************
                      00012 
                      00013 #include "p16f887.inc"
                      00001         LIST
                      00002 
                      00003 ;==========================================================================
                      00004 ; Build date : Nov 22 2017
                      00005 ;  MPASM PIC16F887 processor include
                      00006 ; 
                      00007 ;  (c) Copyright 1999-2017 Microchip Technology, All rights reserved
                      00008 ;==========================================================================
                      00009 
                      00810         LIST
                      00014 
                      00015 ; CONFIG1
                      00016 ; __config 0xE0D4
2007   20D4           00017  __CONFIG _CONFIG1, _FOSC_INTRC_NOCLKOUT & _WDTE_OFF & _PWRTE_OFF & _MCLRE_OFF & _CP_OFF & _CPD_OFF & _B
                            OREN_OFF & _IESO_OFF & _FCMEN_OFF & _LVP_OFF
                      00018 ; CONFIG2
                      00019 ; __config 0xFFFF
2008   3FFF           00020  __CONFIG _CONFIG2, _BOR4V_BOR40V & _WRT_OFF
                      00021  
                      00022 ; TODO PLACE VARIABLE DEFINITIONS GO HERE
                      00023 
                      00024  
                      00025 GPR_VAR                 UDATA
Warning[207]: Found label after column 1. (W_TEMP)
0000                  00026     W_TEMP              RES         1   ; PARA GUARDAR INFO MIENTRAS SE EJECUTA LA INTERRUPCIÓN
Warning[207]: Found label after column 1. (STATUS_TEMP)
0001                  00027     STATUS_TEMP         RES         1
Warning[207]: Found label after column 1. (FLAG)
0002                  00028     FLAG                RES         1   ; PARA CAMBIAR DE DISPLAY
Warning[207]: Found label after column 1. (X)
0003                  00029     X                   RES         1   ; CONEXION ENTRE TX Y RX
Warning[207]: Found label after column 1. (Y)
0004                  00030     Y                   RES         1   ; CONEXION ENTRE TX Y RX
Warning[207]: Found label after column 1. (XH)
0005                  00031     XH                  RES         1   ; CONEXION ENTRE TX Y RX
Warning[207]: Found label after column 1. (YH)
0006                  00032     YH                  RES         1   ; CONEXION ENTRE TX Y RX
Warning[207]: Found label after column 1. (XL)
0007                  00033     XL                  RES         1   ; CONEXION ENTRE TX Y RX
Warning[207]: Found label after column 1. (YL)
MPASM 5.77                        DIBUJO.ASM   10-27-2020  21:34:08         PAGE  2


LOC  OBJECT CODE     LINE SOURCE TEXT
  VALUE

0008                  00034     YL                  RES         1   ; CONEXION ENTRE TX Y RX
Warning[207]: Found label after column 1. (DISPLAY_HX)
0009                  00035     DISPLAY_HX          RES         1   ; VARIABLE PARA COLCAR MI DECENA DE LA COORDENADA EN X
Warning[207]: Found label after column 1. (DISPLAY_LX)
000A                  00036     DISPLAY_LX          RES         1   ; VARIABLE PARA COLCAR MI UNIDAD DE LA COORDENADA EN X
Warning[207]: Found label after column 1. (DISPLAY_HY)
000B                  00037     DISPLAY_HY          RES         1   ; VARIABLE PARA COLCAR MI DECENA DE LA COORDENADA EN Y
Warning[207]: Found label after column 1. (DISPLAY_LY)
000C                  00038     DISPLAY_LY          RES         1   ; VARIABLE PARA COLCAR MI UNIDAD DE LA COORDENADA EN Y
Warning[207]: Found label after column 1. (RXB0)
000D                  00039     RXB0                RES         1   ; 
Warning[207]: Found label after column 1. (RXB1)
000E                  00040     RXB1                RES         1   ; 
Warning[207]: Found label after column 1. (RXB2)
000F                  00041     RXB2                RES         1   ; 
Warning[207]: Found label after column 1. (RXB3)
0010                  00042     RXB3                RES         1   ; 
Warning[207]: Found label after column 1. (RXB4)
0011                  00043     RXB4                RES         1   ; 
Warning[207]: Found label after column 1. (RXB5)
0012                  00044     RXB5                RES         1   ; 
Warning[207]: Found label after column 1. (CUENTARX)
0013                  00045     CUENTARX            RES         1   ; 
Warning[207]: Found label after column 1. (CONT1)
0014                  00046     CONT1               RES         1   ; 
                      00047                 
                      00048 
                      00049 ;*******************************************************************************
                      00050 ; RESET VECTOR
                      00051 ;*******************************************************************************
                      00052 
                      00053 RES_VECT    CODE    0x0000              ; processor reset vector
0000   2???           00054     GOTO    START                       ; go to beginning of program
                      00055 
                      00056 ;*******************************************************************************
                      00057 ; ISR VECTOR
                      00058 ;*******************************************************************************
                      00059 
                      00060 ISR_VECTOR  CODE    0x0004
                      00061 
0004                  00062 PUSH:                       ; PUSHEA LOS DATOS DE STATUS Y W A UNA VARIABLE TEMPORAL EN CASO SE VEAN AFE
                            CTADOS EN LA INTERRUPCIÓN 
0004   138B           00063     BCF     INTCON, GIE     ; DESACTIVA INTERRUPCIONES PARA EVITAR INTERRUPCIONES MIENTRAS SE ESTÁ EN EL
                             ISR
0005   00??           00064     MOVWF   W_TEMP
0006   0E03           00065     SWAPF   STATUS, W
0007   00??           00066     MOVWF   STATUS_TEMP
                      00067 
0008                  00068 ISR:
0008   190B           00069     BTFSC   INTCON, T0IF
0009   2???           00070     CALL    BANDERA_TIMER0   
000A   1A8C           00071     BTFSC   PIR1, RCIF
000B   2???           00072     CALL    BANDERA_RX
MPASM 5.77                        DIBUJO.ASM   10-27-2020  21:34:08         PAGE  3


LOC  OBJECT CODE     LINE SOURCE TEXT
  VALUE

                      00073         
000C                  00074 POP:                        ; POPEA LOS DATOS DE UNA VARIABLE TEMPORAL A STATUS Y W PARA RECUPERAR CUALQ
                            UIER DATO PERDIDO EN LA INTERRUPCIÓN
000C   0E??           00075     SWAPF   STATUS_TEMP, W
000D   0083           00076     MOVWF   STATUS
000E   0E??           00077     SWAPF   W_TEMP, F
000F   0E??           00078     SWAPF   W_TEMP, W
Warning[203]: Found opcode in column 1. (RETFIE)
0010   0009           00079 RETFIE                      ; INCLUYE LA REACTIVACION DEL GIE
                      00080 
0011                  00081 BANDERA_TIMER0:
0011   30F8           00082     MOVLW   .248            ; DELAY PARA 2ms --> 248 / DELAY PARA 10ms --> 216
0012   0081           00083     MOVWF   TMR0  
0013   2???           00084     CALL    DISPLAY         ; EN ESTE TIMER SE MUXEAN LOS DISPLAYS 
0014   110B           00085     BCF     INTCON, T0IF      
Warning[203]: Found opcode in column 1. (RETURN)
0015   0008           00086 RETURN 
                      00087      
0016                  00088 BANDERA_RX:    
0016   0A??           00089     INCF    CUENTARX,1              
0017   08??           00090     MOVFW   RXB4                    
0018   00??           00091     MOVWF   RXB5
                      00092     
0019   08??           00093     MOVFW   RXB3                    
001A   00??           00094     MOVWF   RXB4
                      00095     
001B   08??           00096     MOVFW   RXB2                    
001C   00??           00097     MOVWF   RXB3        
                      00098     
001D   08??           00099     MOVFW   RXB1                    
001E   00??           00100     MOVWF   RXB2
                      00101     
001F   08??           00102     MOVFW   RXB0                    
0020   00??           00103     MOVWF   RXB1
                      00104         
0021   081A           00105     MOVFW   RCREG                   
0022   00??           00106     MOVWF   RXB0                       
                      00107     
0023   3A0A           00108     XORLW   .10                     
0024   1903           00109     BTFSC   STATUS,Z                
0025   2???           00110     GOTO    VERIFICACION
0026   0008           00111     RETURN
                      00112     
Warning[207]: Found label after column 1. (VERIFICACION)
0027                  00113     VERIFICACION:  
0027   3006           00114         MOVLW   .6                          
0028   02??           00115         SUBWF   CUENTARX,W
0029   1D03           00116         BTFSS   STATUS,Z
002A   2???           00117         GOTO    ERRONEO
                      00118 
002B   302C           00119         MOVLW   .44             
002C   02??           00120         SUBWF   RXB3,W
002D   1D03           00121         BTFSS   STATUS,Z
MPASM 5.77                        DIBUJO.ASM   10-27-2020  21:34:08         PAGE  4


LOC  OBJECT CODE     LINE SOURCE TEXT
  VALUE

002E   2???           00122         GOTO    ERRONEO
                      00123 
                      00124 
002F   3030           00125         MOVLW   .48                 
0030   02??           00126         SUBWF   RXB1,W
0031   00??           00127         MOVWF   DISPLAY_HX
                      00128 
0032   3030           00129         MOVLW   .48                
0033   02??           00130         SUBWF   RXB2,W
0034   00??           00131         MOVWF   DISPLAY_LX
                      00132 
0035   3030           00133         MOVLW   .48                
0036   02??           00134         SUBWF   RXB4,W
0037   00??           00135         MOVWF   DISPLAY_HY
                      00136 
0038   3030           00137         MOVLW   .48             
0039   02??           00138         SUBWF   RXB5,W
003A   00??           00139         MOVWF   DISPLAY_LY    
003B   01??           00140         CLRF    CUENTARX
003C   0008           00141         RETURN
                      00142 
Warning[207]: Found label after column 1. (ERRONEO)
003D                  00143     ERRONEO:
003D   01??           00144         CLRF    CUENTARX                ;Clear al conteo para recibir nuevo mensaje
003E   0008           00145         RETURN   
                      00146     
                      00147 ;*******************************************************************************
                      00148 ; TABLA DE DISPLAYS
                      00149 ;*******************************************************************************
                      00150 
003F                  00151 TABLA:
003F   390F           00152     ANDLW   b'00001111' ; MASK
0040   0782           00153     ADDWF   PCL, F
0041   3488           00154     RETLW   b'10001000' ; 0
0042   34EB           00155     RETLW   b'11101011' ; 1
0043   344C           00156     RETLW   b'01001100' ; 2
0044   3449           00157     RETLW   b'01001001' ; 3
0045   342B           00158     RETLW   b'00101011' ; 4
0046   3419           00159     RETLW   b'00011001' ; 5
0047   3418           00160     RETLW   b'00011000' ; 6
0048   34CB           00161     RETLW   b'11001011' ; 7
0049   3408           00162     RETLW   b'00001000' ; 8
004A   340B           00163     RETLW   b'00001011' ; 9
004B   340A           00164     RETLW   b'00001010' ; A
004C   3438           00165     RETLW   b'00111000' ; b
004D   349C           00166     RETLW   b'10011100' ; C
004E   3468           00167     RETLW   b'01101000' ; d
004F   341C           00168     RETLW   b'00011100' ; E
0050   341E           00169     RETLW   b'00011110' ; F  
                      00170 
                      00171 ;*******************************************************************************
                      00172 ; TABLA DE CONVERSIONES
                      00173 ;*******************************************************************************
MPASM 5.77                        DIBUJO.ASM   10-27-2020  21:34:08         PAGE  5


LOC  OBJECT CODE     LINE SOURCE TEXT
  VALUE

                      00174 ; SE USARA ESTA TABLA PARA REALIZAR LAS CONVERSIONES A ASCII 
                      00175 ; Y ENVIAR LOS DATOS EN EL FORMATO DESEADO   
0051                  00176 CONVERSIONES:       
0051   390F           00177     ANDLW   b'00001111' 
0052   0782           00178     ADDWF   PCL, F
0053   3430           00179     RETLW   .48         ;0 
0054   3431           00180     RETLW   .49         ;1 
0055   3432           00181     RETLW   .50         ;2 
0056   3433           00182     RETLW   .51         ;3 
0057   3434           00183     RETLW   .52         ;4 
0058   3435           00184     RETLW   .53         ;5 
0059   3436           00185     RETLW   .54         ;6 
005A   3437           00186     RETLW   .55         ;7 
005B   3438           00187     RETLW   .56         ;8
005C   3439           00188     RETLW   .57         ;9 
005D   3441           00189     RETLW   .65         ;A   
005E   3442           00190     RETLW   .66         ;B   
005F   3443           00191     RETLW   .67         ;C  
0060   3444           00192     RETLW   .68         ;D   
0061   3445           00193     RETLW   .69         ;E  
0062   3446           00194     RETLW   .70         ;F 
                      00195     
                      00196 ;*******************************************************************************
                      00197 ; MAIN PROGRAM
                      00198 ;*******************************************************************************
                      00199 
                      00200 MAIN_PROG   CODE     0x0100                 ; let linker place main program
                      00201 
0100                  00202 START
0100                  00203 SETUP:
0100   2???           00204     CALL    CONFIGURACION_BASE              ; EXPLICACIONES EN LA SECCIÓN DE CONFIGURACIONES
0101   2???           00205     CALL    CONFIGURACION_TIMER0
0102   2???           00206     CALL    CONFIGURACION_INTERRUPCION
0103   2???           00207     CALL    CONFIGURACION_ADC
0104   2???           00208     CALL    CONFIGURACION_TX_9600
0105   2???           00209     CALL    CONFIGURACION_RX
0106   2???           00210     CALL    LIMPIA_VARIABLES
                      00211     
                      00212 ;*******************************************************************************
                      00213 ; MAIN LOOP
                      00214 ;*******************************************************************************    
                      00215 
0107                  00216 LOOP:
0107   2???           00217     CALL    CONVERSION_ADC
0108   2???           00218     CALL    NIB_SEPX
0109   2???           00219     CALL    NIB_SEPY
010A   2???           00220     CALL    RUTINA_TX
010B   2???           00221     GOTO    LOOP                        
                      00222     
                      00223 ;*******************************************************************************
                      00224 ; RUTINA DE DISPLAY
                      00225 ;*******************************************************************************        
010C                  00226 DISPLAY: ; MUXEO DE LOS DISPLAYS
MPASM 5.77                        DIBUJO.ASM   10-27-2020  21:34:08         PAGE  6


LOC  OBJECT CODE     LINE SOURCE TEXT
  VALUE

010C   1085           00227     BCF     PORTA, 1                    ; EN ESTOS BITS DEL PUERTO A ESTÁN LOS TRANSISTORES
010D   1105           00228     BCF     PORTA, 2
010E   1185           00229     BCF     PORTA, 3
010F   1205           00230     BCF     PORTA, 4
0110   1800           00231     BTFSC   FLAG, 0
0111   2???           00232     GOTO    CY
Warning[207]: Found label after column 1. (CX)
0112                  00233     CX:
0112   1880           00234         BTFSC   FLAG, 1
0113   2???           00235         GOTO    OP1X
Warning[207]: Found label after column 1. (OP0X)
0114                  00236         OP0X:
0114   08??           00237             MOVFW   DISPLAY_HY          ; LLEVA EL VALOR DEL PUERTO INCREMENTADO POR LOS BOTONES PARA SE
                            R TRANSFORMADO CON LA TABLA AL VALOR DEL DISLPLAY
0115   2???           00238             CALL    TABLA               ; TABLA CON LOS VALORES DEL DISPLAY
0116   0088           00239             MOVWF   PORTD               ; PUERTO CONECTADO AL DISPLAY
0117   1485           00240             BSF     PORTA, 1
0118   1480           00241             BSF     FLAG, 1
0119   0008           00242         RETURN   
Warning[207]: Found label after column 1. (OP1X)
011A                  00243         OP1X:                           ; FUNGIONA CON EL DISPLAY DERECHO
011A   08??           00244             MOVFW   DISPLAY_LY
011B   2???           00245             CALL    TABLA       
011C   0088           00246             MOVWF   PORTD
011D   1505           00247             BSF     PORTA, 2
011E   1400           00248             BSF     FLAG, 0     
011F   1080           00249             BCF     FLAG, 1     
0120   0008           00250         RETURN  
Warning[207]: Found label after column 1. (CY)
0121                  00251     CY:
0121   1880           00252         BTFSC   FLAG, 1
0122   2???           00253         GOTO    OP1Y
Warning[207]: Found label after column 1. (OP0Y)
0123                  00254         OP0Y:
0123   08??           00255             MOVFW   DISPLAY_HX          ; LLEVA EL VALOR DEL PUERTO INCREMENTADO POR LOS BOTONES PARA SE
                            R TRANSFORMADO CON LA TABLA AL VALOR DEL DISLPLAY
0124   2???           00256             CALL    TABLA               ; TABLA CON LOS VALORES DEL DISPLAY
0125   0088           00257             MOVWF   PORTD               ; PUERTO CONECTADO AL DISPLAY
0126   1585           00258             BSF     PORTA, 3
0127   1480           00259             BSF     FLAG, 1
0128   0008           00260         RETURN   
Warning[207]: Found label after column 1. (OP1Y)
0129                  00261         OP1Y:                           ; FUNGIONA CON EL DISPLAY DERECHO
0129   08??           00262             MOVFW   DISPLAY_LX
012A   2???           00263             CALL    TABLA       
012B   0088           00264             MOVWF   PORTD
012C   1605           00265             BSF     PORTA, 4
012D   1000           00266             BCF     FLAG, 0     
012E   1080           00267             BCF     FLAG, 1     
012F   0008           00268         RETURN  
                      00269 
                      00270 ;*******************************************************************************
                      00271 ; RUTINA DE CONVERSION ADC
MPASM 5.77                        DIBUJO.ASM   10-27-2020  21:34:08         PAGE  7


LOC  OBJECT CODE     LINE SOURCE TEXT
  VALUE

                      00272 ;*******************************************************************************        
                      00273  
0130                  00274 CONVERSION_ADC:
0130   1283 1303      00275     BANKSEL ADCON0
0132   3083           00276     MOVLW   b'10000011'                 
0133   009F           00277     MOVWF   ADCON0  
0134   2???           00278     CALL    DELAY
                      00279    
0135   149F           00280     BSF     ADCON0,GO
0136   189F           00281     BTFSC   ADCON0,GO 
0137   2???           00282     GOTO    $-1
                      00283     
0138   1283 1303      00284     BANKSEL ADRESH
013A   081E           00285     MOVFW   ADRESH
013B   00??           00286     MOVWF   Y                   
                      00287     
013C   1283 1303      00288     BANKSEL ADCON0
013E   3093           00289     MOVLW   b'10010011'                 
013F   009F           00290     MOVWF   ADCON0
0140   2???           00291     CALL    DELAY
0141   149F           00292     BSF     ADCON0,GO
0142   189F           00293     BTFSC   ADCON0,GO 
0143   2???           00294     GOTO    $-1
                      00295     
0144   1283 1303      00296     BANKSEL ADRESH
0146   081E           00297     MOVFW   ADRESH
0147   00??           00298     MOVWF   X                   
0148   0008           00299     RETURN      
                      00300         
                      00301 ;*******************************************************************************
                      00302 ; RUTINA DE SEPARACIÓN DE NIBBLES
                      00303 ;*******************************************************************************        
                      00304     
0149                  00305 NIB_SEPX:
0149   08??           00306     MOVFW   X   ; COLOCO MI VARIABLE CONECTORA DE COMUNICACION SERIAL EN MIS NIBBLES HIGH Y LOW PARA COL
                            OCARLOS EN EL DISPLAY
014A   00??           00307     MOVWF   XL
014B   0E??           00308     SWAPF   X, W
014C   00??           00309     MOVWF   XH
Warning[203]: Found opcode in column 1. (RETURN)
014D   0008           00310 RETURN   
014E                  00311 NIB_SEPY:
014E   08??           00312     MOVFW   Y           ; COLOCO MI VARIABLE CONECTORA DE COMUNICACION SERIAL EN MIS NIBBLES HIGH Y LOW 
                            PARA COLOCARLOS EN EL DISPLAY
014F   00??           00313     MOVWF   YL
0150   0E??           00314     SWAPF   Y, W
0151   00??           00315     MOVWF   YH
Warning[203]: Found opcode in column 1. (RETURN)
0152   0008           00316 RETURN
                      00317 
                      00318 ;*******************************************************************************
                      00319 ; RUTINA ENVIO
                      00320 ;*******************************************************************************        
MPASM 5.77                        DIBUJO.ASM   10-27-2020  21:34:08         PAGE  8


LOC  OBJECT CODE     LINE SOURCE TEXT
  VALUE

                      00321      
0153                  00322 RUTINA_TX:    
0153   08??           00323     MOVFW  XH                   
0154   2???           00324     CALL   CONVERSIONES         
0155   0099           00325     MOVWF  TXREG
0156   2???           00326     CALL   DELAY_BIG
                      00327     
0157   08??           00328     MOVFW  XL                   
0158   2???           00329     CALL   CONVERSIONES         
0159   0099           00330     MOVWF  TXREG
015A   2???           00331     CALL   DELAY_BIG
                      00332     
015B   302C           00333     MOVLW  .44                  
015C   0099           00334     MOVWF  TXREG
015D   2???           00335     CALL   DELAY_BIG
                      00336     
015E   08??           00337     MOVFW  YH                   
015F   2???           00338     CALL   CONVERSIONES         
0160   0099           00339     MOVWF  TXREG
0161   2???           00340     CALL   DELAY_BIG
                      00341     
0162   08??           00342     MOVFW  YL                   
0163   2???           00343     CALL   CONVERSIONES         
0164   0099           00344     MOVWF  TXREG
0165   2???           00345     CALL   DELAY_BIG
                      00346     
0166   300A           00347     MOVLW  .10                   
0167   0099           00348     MOVWF  TXREG
0168   2???           00349     CALL   DELAY_BIG
0169   0008           00350     RETURN  
                      00351     
                      00352 ;*******************************************************************************
                      00353 ; RUTINA DE DELAYS
                      00354 ;*******************************************************************************            
                      00355     
016A                  00356 DELAY:
016A   3017           00357     MOVLW   .23                     
016B   00??           00358     MOVWF   CONT1
016C   0B??           00359     DECFSZ  CONT1, F
016D   2???           00360     GOTO    $-1                       
Warning[203]: Found opcode in column 1. (RETURN)
016E   0008           00361 RETURN    
                      00362   
016F                  00363 DELAY_BIG:
016F   30FF           00364     MOVLW   .255                            
0170   00??           00365     MOVWF   CONT1
0171   0B??           00366     DECFSZ  CONT1, F
0172   2???           00367     GOTO    $-1                       
0173   30FF           00368     MOVLW   .255                            
0174   00??           00369     MOVWF   CONT1
0175   0B??           00370     DECFSZ  CONT1, F
0176   2???           00371     GOTO    $-1                       
0177   30FF           00372     MOVLW   .255                          
MPASM 5.77                        DIBUJO.ASM   10-27-2020  21:34:08         PAGE  9


LOC  OBJECT CODE     LINE SOURCE TEXT
  VALUE

0178   00??           00373     MOVWF   CONT1
0179   0B??           00374     DECFSZ  CONT1, F
017A   2???           00375     GOTO    $-1                       
Warning[203]: Found opcode in column 1. (RETURN)
017B   0008           00376 RETURN        
                      00377     
                      00378 ;*******************************************************************************
                      00379 ; CONFIGURACIONES
                      00380 ;*******************************************************************************    
                      00381      
017C                  00382 CONFIGURACION_BASE:
017C   1283 1303      00383     BANKSEL PORTA
017E   0185           00384     CLRF    PORTA               ; LIMPIA LOS PUERTOS PARA EVITAR QUE TENGAN CUALQUIER VALOR INICIAL DIST
                            INTO DE 0
017F   0186           00385     CLRF    PORTB
0180   0187           00386     CLRF    PORTC
0181   0188           00387     CLRF    PORTD
0182   0189           00388     CLRF    PORTE
                      00389 
0183   1683 1703      00390     BANKSEL ANSEL
Message[302]: Register in operand not in bank 0.  Ensure that bank bits are correct.
0185   0188           00391     CLRF    ANSEL
Message[302]: Register in operand not in bank 0.  Ensure that bank bits are correct.
0186   1408           00392     BSF     ANSEL, 0            ; POT EN X
Message[302]: Register in operand not in bank 0.  Ensure that bank bits are correct.
0187   1688           00393     BSF     ANSEL, 5            ; POT EN Y
Message[302]: Register in operand not in bank 0.  Ensure that bank bits are correct.
0188   0189           00394     CLRF    ANSELH              ; BORRA EL CONTROL DE ENTRADAS ANALÓGICAS DEL PUERTO B  
                      00395 
0189   1683 1303      00396     BANKSEL TRISA
018B   3021           00397     MOVLW   b'00100001'         ; POT Y TRANSISTORES
Message[302]: Register in operand not in bank 0.  Ensure that bank bits are correct.
018C   0085           00398     MOVWF   TRISA
                      00399                 
Message[302]: Register in operand not in bank 0.  Ensure that bank bits are correct.
018D   0186           00400     CLRF    TRISB               ; SIN USAR      
Message[302]: Register in operand not in bank 0.  Ensure that bank bits are correct.
018E   0187           00401     CLRF    TRISC               ; PARA RX Y TX
Message[302]: Register in operand not in bank 0.  Ensure that bank bits are correct.
018F   0188           00402     CLRF    TRISD               ; PARA DISPLAY
                      00403     
Message[302]: Register in operand not in bank 0.  Ensure that bank bits are correct.
0190   0189           00404     CLRF    TRISE
0191   1283 1303      00405     BANKSEL PORTA
Warning[203]: Found opcode in column 1. (RETURN)
0193   0008           00406 RETURN
                      00407     
0194                  00408 CONFIGURACION_TIMER0:
0194   1683 1303      00409     BANKSEL TRISA
0196   0064           00410     CLRWDT                      ; CONFIGURACIÓN PARA EL FUNCIONAMIENTO DEL TIMER0
0197   30D7           00411     MOVLW   b'11010111' 
Message[302]: Register in operand not in bank 0.  Ensure that bank bits are correct.
0198   0081           00412     MOVWF   OPTION_REG 
MPASM 5.77                        DIBUJO.ASM   10-27-2020  21:34:08         PAGE 10


LOC  OBJECT CODE     LINE SOURCE TEXT
  VALUE

0199   1283 1303      00413     BANKSEL PORTA
Warning[203]: Found opcode in column 1. (RETURN)
019B   0008           00414 RETURN
                      00415    
019C                  00416 CONFIGURACION_INTERRUPCION:
019C   1683 1303      00417     BANKSEL TRISA
Message[302]: Register in operand not in bank 0.  Ensure that bank bits are correct.
019E   168C           00418     BSF     PIE1, RCIE          ; HABILITA INTERRUPCION DE RECEPCION SERIAL CON RX
019F   170B           00419     BSF     INTCON, PEIE        ; INTERRUPCIONES PERIFÉRICAS -TIMER 2 Y ADC-
01A0   168B           00420     BSF     INTCON, T0IE        ; HABILITA INTERRUPCION DEL TIMER0
                      00421     
01A1   1283 1303      00422     BANKSEL PORTA
01A3   178B           00423     BSF     INTCON, GIE         ; HABILITA LAS INTERRUPCIONES
01A4   110B           00424     BCF     INTCON, T0IF        ; PARA ASEGURARSE DE QUE NO TENGA OVERFLOW AL INICIO
Warning[203]: Found opcode in column 1. (RETURN)
01A5   0008           00425 RETURN
                      00426 
01A6                  00427 CONFIGURACION_ADC:    
01A6   1683 1303      00428     BANKSEL ADCON1 
Message[302]: Register in operand not in bank 0.  Ensure that bank bits are correct.
01A8   019F           00429     CLRF    ADCON1              ; VDD Y VSS COMO REFERENCIA / JUSTIFICADO A LA IZQUIERDA
                      00430     
01A9   1283 1303      00431     BANKSEL ADCON0              ; CONFIGURACIÓN PARA USAR EL FOSC/32 Y LOS CANALES ANALÓGICOS 0 Y 4
01AB   141F           00432     BSF     ADCON0, 0           ; HABILITA
01AC   149F           00433     BSF     ADCON0, 1           ; DA EL PRIMER GO
01AD   111F           00434     BCF     ADCON0, 2           ; AL NO CONFIGURAR EL BIT 4, SE DA LA POSIBILIDAD A USAR EL CANAL 0 O EL
                             4
01AE   119F           00435     BCF     ADCON0, 3
01AF   129F           00436     BCF     ADCON0, 5
01B0   131F           00437     BCF     ADCON0, 6
01B1   179F           00438     BSF     ADCON0, 7   
Warning[203]: Found opcode in column 1. (RETURN)
01B2   0008           00439 RETURN
                      00440     
01B3                  00441 CONFIGURACION_TX_9600:
01B3   1683 1303      00442     BANKSEL TRISA
Message[302]: Register in operand not in bank 0.  Ensure that bank bits are correct.
01B5   1318           00443     BCF     TXSTA, TX9    
Message[302]: Register in operand not in bank 0.  Ensure that bank bits are correct.
01B6   1218           00444     BCF     TXSTA, SYNC     ; PARA LOGRAR UN BAUD DE 9600 CON UN FOSC DE 4MHz
Message[302]: Register in operand not in bank 0.  Ensure that bank bits are correct.
01B7   1518           00445     BSF     TXSTA, BRGH     ; PARA LOGRAR UN BAUD DE 9600 CON UN FOSC DE 4MHz
                      00446 
01B8   1683 1703      00447     BANKSEL ANSEL
Message[302]: Register in operand not in bank 0.  Ensure that bank bits are correct.
01BA   1187           00448     BCF     BAUDCTL, BRG16  ; PARA LOGRAR UN BAUD DE 9600 CON UN FOSC DE 4MHz
                      00449     
01BB   1683 1303      00450     BANKSEL TRISA
01BD   3019           00451     MOVLW   .25
Message[302]: Register in operand not in bank 0.  Ensure that bank bits are correct.
01BE   0099           00452     MOVWF   SPBRG           ; PARA LOGRAR UN BAUD DE 9600 CON UN FOSC DE 4MHz
Message[302]: Register in operand not in bank 0.  Ensure that bank bits are correct.
01BF   019A           00453     CLRF    SPBRGH          ; PARA LOGRAR UN BAUD DE 9600 CON UN FOSC DE 4MHz
MPASM 5.77                        DIBUJO.ASM   10-27-2020  21:34:08         PAGE 11


LOC  OBJECT CODE     LINE SOURCE TEXT
  VALUE

Message[302]: Register in operand not in bank 0.  Ensure that bank bits are correct.
01C0   1698           00454     BSF     TXSTA, TXEN    
01C1   1283 1303      00455     BANKSEL PORTA
Warning[203]: Found opcode in column 1. (RETURN)
01C3   0008           00456 RETURN
                      00457     
01C4                  00458 CONFIGURACION_RX:
01C4   1283 1303      00459     BANKSEL PORTA
01C6   1798           00460     BSF     RCSTA, SPEN
01C7   1318           00461     BCF     RCSTA, RX9
01C8   1618           00462     BSF     RCSTA, CREN
Warning[203]: Found opcode in column 1. (RETURN)
01C9   0008           00463 RETURN
                      00464 
01CA                  00465 LIMPIA_VARIABLES:
01CA   1283 1303      00466     BANKSEL PORTA
01CC   01??           00467     CLRF    CUENTARX
01CD   019E           00468     CLRF    ADRESH
01CE   01??           00469     CLRF    X
01CF   01??           00470     CLRF    Y
01D0   01??           00471     CLRF    CONT1
Warning[203]: Found opcode in column 1. (RETURN)
01D1   0008           00472 RETURN
                      00473 ;*******************************************************************************
                      00474  
20D4 3FFF             00475     END
MPASM 5.77                        DIBUJO.ASM   10-27-2020  21:34:08         PAGE 12


SYMBOL TABLE
  LABEL                             VALUE 

ABDEN                             00000000
ABDOVF                            00000007
ACKDT                             00000005
ACKEN                             00000004
ACKSTAT                           00000006
ADCON0                            0000001F
ADCON1                            0000009F
ADCS0                             00000006
ADCS1                             00000007
ADDEN                             00000003
ADFM                              00000007
ADIE                              00000006
ADIF                              00000006
ADON                              00000000
ADRESH                            0000001E
ADRESL                            0000009E
ANS0                              00000000
ANS1                              00000001
ANS10                             00000002
ANS11                             00000003
ANS12                             00000004
ANS13                             00000005
ANS2                              00000002
ANS3                              00000003
ANS4                              00000004
ANS5                              00000005
ANS6                              00000006
ANS7                              00000007
ANS8                              00000000
ANS9                              00000001
ANSEL                             00000188
ANSELH                            00000189
BANDERA_RX                        00000016
BANDERA_TIMER0                    00000011
BAUDCTL                           00000187
BCLIE                             00000003
BCLIF                             00000003
BF                                00000000
BRG0                              00000000
BRG1                              00000001
BRG10                             00000002
BRG11                             00000003
BRG12                             00000004
BRG13                             00000005
BRG14                             00000006
BRG15                             00000007
BRG16                             00000003
BRG2                              00000002
BRG3                              00000003
BRG4                              00000004
BRG5                              00000005
BRG6                              00000006
BRG7                              00000007
MPASM 5.77                        DIBUJO.ASM   10-27-2020  21:34:08         PAGE 13


SYMBOL TABLE
  LABEL                             VALUE 

BRG8                              00000000
BRG9                              00000001
BRGH                              00000002
C                                 00000000
C1CH0                             00000000
C1CH1                             00000001
C1IE                              00000005
C1IF                              00000005
C1OE                              00000005
C1ON                              00000007
C1OUT                             00000006
C1POL                             00000004
C1R                               00000002
C1RSEL                            00000005
C1SEN                             00000005
C2CH0                             00000000
C2CH1                             00000001
C2IE                              00000006
C2IF                              00000006
C2OE                              00000005
C2ON                              00000007
C2OUT                             00000006
C2POL                             00000004
C2R                               00000002
C2REN                             00000004
C2RSEL                            00000004
C2SYNC                            00000000
CCP1CON                           00000017
CCP1IE                            00000002
CCP1IF                            00000002
CCP1M0                            00000000
CCP1M1                            00000001
CCP1M2                            00000002
CCP1M3                            00000003
CCP1X                             00000005
CCP1Y                             00000004
CCP2CON                           0000001D
CCP2IE                            00000000
CCP2IF                            00000000
CCP2M0                            00000000
CCP2M1                            00000001
CCP2M2                            00000002
CCP2M3                            00000003
CCP2X                             00000005
CCP2Y                             00000004
CCPR1                             00000015
CCPR1H                            00000016
CCPR1L                            00000015
CCPR2                             0000001B
CCPR2H                            0000001C
CCPR2L                            0000001B
CHS0                              00000002
CHS1                              00000003
MPASM 5.77                        DIBUJO.ASM   10-27-2020  21:34:08         PAGE 14


SYMBOL TABLE
  LABEL                             VALUE 

CHS2                              00000004
CHS3                              00000005
CKE                               00000006
CKP                               00000004
CM1CON0                           00000107
CM2CON0                           00000108
CM2CON1                           00000109
CONFIGURACION_ADC                 000001A6
CONFIGURACION_BASE                0000017C
CONFIGURACION_INTERRUPCION        0000019C
CONFIGURACION_RX                  000001C4
CONFIGURACION_TIMER0              00000194
CONFIGURACION_TX_9600             000001B3
CONT1                             00000014
CONVERSIONES                      00000051
CONVERSION_ADC                    00000130
CREN                              00000004
CSRC                              00000007
CUENTARX                          00000013
CX                                00000112
CY                                00000121
D                                 00000005
DATA_ADDRESS                      00000005
DC                                00000001
DC1B0                             00000004
DC1B1                             00000005
DC2B0                             00000004
DC2B1                             00000005
DELAY                             0000016A
DELAY_BIG                         0000016F
DISPLAY                           0000010C
DISPLAY_HX                        00000009
DISPLAY_HY                        0000000B
DISPLAY_LX                        0000000A
DISPLAY_LY                        0000000C
D_A                               00000005
D_NOT_A                           00000005
ECCPAS                            0000009C
ECCPAS0                           00000004
ECCPAS1                           00000005
ECCPAS2                           00000006
ECCPASE                           00000007
EEADR                             0000010D
EEADRH                            0000010F
EECON1                            0000018C
EECON2                            0000018D
EEDAT                             0000010C
EEDATA                            0000010C
EEDATH                            0000010E
EEIE                              00000004
EEIF                              00000004
EEPGD                             00000007
ERRONEO                           0000003D
MPASM 5.77                        DIBUJO.ASM   10-27-2020  21:34:08         PAGE 15


SYMBOL TABLE
  LABEL                             VALUE 

F                                 00000001
FERR                              00000002
FLAG                              00000002
FSR                               00000004
FVREN                             00000000
GCEN                              00000007
GIE                               00000007
GO                                00000001
GO_DONE                           00000001
GO_NOT_DONE                       00000001
HTS                               00000002
I2C_DATA                          00000005
I2C_READ                          00000002
I2C_START                         00000003
I2C_STOP                          00000004
INDF                              00000000
INTCON                            0000000B
INTE                              00000004
INTEDG                            00000006
INTF                              00000001
IOCB                              00000096
IOCB0                             00000000
IOCB1                             00000001
IOCB2                             00000002
IOCB3                             00000003
IOCB4                             00000004
IOCB5                             00000005
IOCB6                             00000006
IOCB7                             00000007
IRCF0                             00000004
IRCF1                             00000005
IRCF2                             00000006
IRP                               00000007
ISR                               00000008
LIMPIA_VARIABLES                  000001CA
LOOP                              00000107
LTS                               00000001
MC1OUT                            00000007
MC2OUT                            00000006
MSK                               00000093
MSK0                              00000000
MSK1                              00000001
MSK2                              00000002
MSK3                              00000003
MSK4                              00000004
MSK5                              00000005
MSK6                              00000006
MSK7                              00000007
NIB_SEPX                          00000149
NIB_SEPY                          0000014E
NOT_A                             00000005
NOT_ADDRESS                       00000005
NOT_BO                            00000000
MPASM 5.77                        DIBUJO.ASM   10-27-2020  21:34:08         PAGE 16


SYMBOL TABLE
  LABEL                             VALUE 

NOT_BOR                           00000000
NOT_DONE                          00000001
NOT_PD                            00000003
NOT_POR                           00000001
NOT_RBPU                          00000007
NOT_RC8                           00000006
NOT_T1SYNC                        00000002
NOT_TO                            00000004
NOT_TX8                           00000006
NOT_W                             00000002
NOT_WRITE                         00000002
OERR                              00000001
OP0X                              00000114
OP0Y                              00000123
OP1X                              0000011A
OP1Y                              00000129
OPTION_REG                        00000081
OSCCON                            0000008F
OSCTUNE                           00000090
OSFIE                             00000007
OSFIF                             00000007
OSTS                              00000003
P                                 00000004
P1M0                              00000006
P1M1                              00000007
PCL                               00000002
PCLATH                            0000000A
PCON                              0000008E
PDC0                              00000000
PDC1                              00000001
PDC2                              00000002
PDC3                              00000003
PDC4                              00000004
PDC5                              00000005
PDC6                              00000006
PEIE                              00000006
PEN                               00000002
PIE1                              0000008C
PIE2                              0000008D
PIR1                              0000000C
PIR2                              0000000D
POP                               0000000C
PORTA                             00000005
PORTB                             00000006
PORTC                             00000007
PORTD                             00000008
PORTE                             00000009
PR2                               00000092
PRSEN                             00000007
PS0                               00000000
PS1                               00000001
PS2                               00000002
PSA                               00000003
MPASM 5.77                        DIBUJO.ASM   10-27-2020  21:34:08         PAGE 17


SYMBOL TABLE
  LABEL                             VALUE 

PSSAC0                            00000002
PSSAC1                            00000003
PSSBD0                            00000000
PSSBD1                            00000001
PSTRCON                           0000009D
PULSR                             00000002
PULSS                             00000003
PUSH                              00000004
PWM1CON                           0000009B
R                                 00000002
RA0                               00000000
RA1                               00000001
RA2                               00000002
RA3                               00000003
RA4                               00000004
RA5                               00000005
RA6                               00000006
RA7                               00000007
RB0                               00000000
RB1                               00000001
RB2                               00000002
RB3                               00000003
RB4                               00000004
RB5                               00000005
RB6                               00000006
RB7                               00000007
RBIE                              00000003
RBIF                              00000000
RC0                               00000000
RC1                               00000001
RC2                               00000002
RC3                               00000003
RC4                               00000004
RC5                               00000005
RC6                               00000006
RC7                               00000007
RC8_9                             00000006
RC9                               00000006
RCD8                              00000000
RCEN                              00000003
RCIDL                             00000006
RCIE                              00000005
RCIF                              00000005
RCREG                             0000001A
RCSTA                             00000018
RD                                00000000
RD0                               00000000
RD1                               00000001
RD2                               00000002
RD3                               00000003
RD4                               00000004
RD5                               00000005
RD6                               00000006
MPASM 5.77                        DIBUJO.ASM   10-27-2020  21:34:08         PAGE 18


SYMBOL TABLE
  LABEL                             VALUE 

RD7                               00000007
RE0                               00000000
RE1                               00000001
RE2                               00000002
RE3                               00000003
READ_WRITE                        00000002
RP0                               00000005
RP1                               00000006
RSEN                              00000001
RUTINA_TX                         00000153
RX9                               00000006
RX9D                              00000000
RXB0                              0000000D
RXB1                              0000000E
RXB2                              0000000F
RXB3                              00000010
RXB4                              00000011
RXB5                              00000012
R_NOT_W                           00000002
R_W                               00000002
S                                 00000003
SBOREN                            00000004
SCKP                              00000004
SCS                               00000000
SEN                               00000000
SENDB                             00000003
SETUP                             00000100
SMP                               00000007
SPBRG                             00000099
SPBRGH                            0000009A
SPEN                              00000007
SR0                               00000006
SR1                               00000007
SRCON                             00000185
SREN                              00000005
SSPADD                            00000093
SSPBUF                            00000013
SSPCON                            00000014
SSPCON2                           00000091
SSPEN                             00000005
SSPIE                             00000003
SSPIF                             00000003
SSPM0                             00000000
SSPM1                             00000001
SSPM2                             00000002
SSPM3                             00000003
SSPMSK                            00000093
SSPOV                             00000006
SSPSTAT                           00000094
START                             00000100
STATUS                            00000003
STATUS_TEMP                       00000001
STRA                              00000000
MPASM 5.77                        DIBUJO.ASM   10-27-2020  21:34:08         PAGE 19


SYMBOL TABLE
  LABEL                             VALUE 

STRB                              00000001
STRC                              00000002
STRD                              00000003
STRSYNC                           00000004
SWDTEN                            00000000
SYNC                              00000004
T0CS                              00000005
T0IE                              00000005
T0IF                              00000002
T0SE                              00000004
T1CKPS0                           00000004
T1CKPS1                           00000005
T1CON                             00000010
T1GINV                            00000007
T1GIV                             00000007
T1GSS                             00000001
T1INSYNC                          00000002
T1OSCEN                           00000003
T1SYNC                            00000002
T2CKPS0                           00000000
T2CKPS1                           00000001
T2CON                             00000012
TABLA                             0000003F
TMR0                              00000001
TMR0IE                            00000005
TMR0IF                            00000002
TMR1                              0000000E
TMR1CS                            00000001
TMR1GE                            00000006
TMR1H                             0000000F
TMR1IE                            00000000
TMR1IF                            00000000
TMR1L                             0000000E
TMR1ON                            00000000
TMR2                              00000011
TMR2IE                            00000001
TMR2IF                            00000001
TMR2ON                            00000002
TOUTPS0                           00000003
TOUTPS1                           00000004
TOUTPS2                           00000005
TOUTPS3                           00000006
TRISA                             00000085
TRISA0                            00000000
TRISA1                            00000001
TRISA2                            00000002
TRISA3                            00000003
TRISA4                            00000004
TRISA5                            00000005
TRISA6                            00000006
TRISA7                            00000007
TRISB                             00000086
TRISB0                            00000000
MPASM 5.77                        DIBUJO.ASM   10-27-2020  21:34:08         PAGE 20


SYMBOL TABLE
  LABEL                             VALUE 

TRISB1                            00000001
TRISB2                            00000002
TRISB3                            00000003
TRISB4                            00000004
TRISB5                            00000005
TRISB6                            00000006
TRISB7                            00000007
TRISC                             00000087
TRISC0                            00000000
TRISC1                            00000001
TRISC2                            00000002
TRISC3                            00000003
TRISC4                            00000004
TRISC5                            00000005
TRISC6                            00000006
TRISC7                            00000007
TRISD                             00000088
TRISD0                            00000000
TRISD1                            00000001
TRISD2                            00000002
TRISD3                            00000003
TRISD4                            00000004
TRISD5                            00000005
TRISD6                            00000006
TRISD7                            00000007
TRISE                             00000089
TRISE0                            00000000
TRISE1                            00000001
TRISE2                            00000002
TRISE3                            00000003
TRMT                              00000001
TUN0                              00000000
TUN1                              00000001
TUN2                              00000002
TUN3                              00000003
TUN4                              00000004
TX8_9                             00000006
TX9                               00000006
TX9D                              00000000
TXD8                              00000000
TXEN                              00000005
TXIE                              00000004
TXIF                              00000004
TXREG                             00000019
TXSTA                             00000098
UA                                00000001
ULPWUE                            00000005
ULPWUIE                           00000002
ULPWUIF                           00000002
VCFG0                             00000004
VCFG1                             00000005
VERIFICACION                      00000027
VR0                               00000000
MPASM 5.77                        DIBUJO.ASM   10-27-2020  21:34:08         PAGE 21


SYMBOL TABLE
  LABEL                             VALUE 

VR1                               00000001
VR2                               00000002
VR3                               00000003
VRCON                             00000097
VREN                              00000007
VROE                              00000006
VRR                               00000005
VRSS                              00000004
W                                 00000000
WCOL                              00000007
WDTCON                            00000105
WDTPS0                            00000001
WDTPS1                            00000002
WDTPS2                            00000003
WDTPS3                            00000004
WPUB                              00000095
WPUB0                             00000000
WPUB1                             00000001
WPUB2                             00000002
WPUB3                             00000003
WPUB4                             00000004
WPUB5                             00000005
WPUB6                             00000006
WPUB7                             00000007
WR                                00000001
WREN                              00000002
WRERR                             00000003
WUE                               00000001
W_TEMP                            00000000
X                                 00000003
XH                                00000005
XL                                00000007
Y                                 00000004
YH                                00000006
YL                                00000008
Z                                 00000002
_BOR21V                           00003EFF
_BOR40V                           00003FFF
_BOR4V_BOR21V                     00003EFF
_BOR4V_BOR40V                     00003FFF
_BOREN_NSLEEP                     00003EFF
_BOREN_OFF                        00003CFF
_BOREN_ON                         00003FFF
_BOREN_SBODEN                     00003DFF
_BOR_NSLEEP                       00003EFF
_BOR_OFF                          00003CFF
_BOR_ON                           00003FFF
_BOR_SBODEN                       00003DFF
_CONFIG1                          00002007
_CONFIG2                          00002008
_CPD_OFF                          00003FFF
_CPD_ON                           00003F7F
_CP_OFF                           00003FFF
MPASM 5.77                        DIBUJO.ASM   10-27-2020  21:34:08         PAGE 22


SYMBOL TABLE
  LABEL                             VALUE 

_CP_ON                            00003FBF
_DEBUG_OFF                        00003FFF
_DEBUG_ON                         00001FFF
_DEVID1                           00002006
_EC_OSC                           00003FFB
_EXTRC                            00003FFF
_EXTRCIO                          00003FFE
_EXTRC_OSC_CLKOUT                 00003FFF
_EXTRC_OSC_NOCLKOUT               00003FFE
_FCMEN_OFF                        000037FF
_FCMEN_ON                         00003FFF
_FOSC_EC                          00003FFB
_FOSC_EXTRC_CLKOUT                00003FFF
_FOSC_EXTRC_NOCLKOUT              00003FFE
_FOSC_HS                          00003FFA
_FOSC_INTRC_CLKOUT                00003FFD
_FOSC_INTRC_NOCLKOUT              00003FFC
_FOSC_LP                          00003FF8
_FOSC_XT                          00003FF9
_HS_OSC                           00003FFA
_IDLOC0                           00002000
_IDLOC1                           00002001
_IDLOC2                           00002002
_IDLOC3                           00002003
_IESO_OFF                         00003BFF
_IESO_ON                          00003FFF
_INTOSC                           00003FFD
_INTOSCIO                         00003FFC
_INTRC_OSC_CLKOUT                 00003FFD
_INTRC_OSC_NOCLKOUT               00003FFC
_LP_OSC                           00003FF8
_LVP_OFF                          00002FFF
_LVP_ON                           00003FFF
_MAIN_PROG_0137                   00000137
_MAIN_PROG_0143                   00000143
_MAIN_PROG_016D                   0000016D
_MAIN_PROG_0172                   00000172
_MAIN_PROG_0176                   00000176
_MAIN_PROG_017A                   0000017A
_MCLRE_OFF                        00003FDF
_MCLRE_ON                         00003FFF
_PWRTE_OFF                        00003FFF
_PWRTE_ON                         00003FEF
_WDTE_OFF                         00003FF7
_WDTE_ON                          00003FFF
_WDT_OFF                          00003FF7
_WDT_ON                           00003FFF
_WRT_1FOURTH                      00003BFF
_WRT_256                          00003DFF
_WRT_HALF                         000039FF
_WRT_OFF                          00003FFF
_XT_OSC                           00003FF9
__16F887                          00000001
MPASM 5.77                        DIBUJO.ASM   10-27-2020  21:34:08         PAGE 23






Errors   :     0
Warnings :    42 reported,     0 suppressed
Messages :    19 reported,     0 suppressed

